(dp1
I0
(lp2
S"Vroom vroom I'm Audi!"
p3
aS'Ricket'
p4
aS'Feb 17, 2016'
p5
asI1
(lp6
S'Oh god, I said eh.'
p7
aS'Ricket'
p8
aS'Feb 17, 2016'
p9
asI2
(lp10
S'Get fucked, Im bad.'
p11
aS'Ricket'
p12
aS'date unknown'
p13
asI3
(lp14
S'I have a deek.'
p15
aS'Ricket'
p16
aS'date unknown'
p17
asI4
(lp18
S'I pinky finger the A.'
p19
aS'Ricket'
p20
aS'date unknown'
p21
asI5
(lp22
S'I am not from the stream... I AM the stream!'
p23
aS'Ricket'
p24
aS'date unknown'
p25
asI6
(lp26
S'Ricket does what Ricket wants.'
p27
aS'Ricket'
p28
aS'date unknown'
p29
asI7
(lp30
S"Greed isn't bad, she's just misunderstood. She's definitely fat though."
p31
aS'Ricket'
p32
aS'date unknown'
p33
asI8
(lp34
S''
aS'Ricket'
p35
aS'date unknown'
p36
asI9
(lp37
S'Yes Deemora I used pot. A pot.'
p38
aS'Ricket'
p39
aS'date unknown'
p40
asI10
(lp41
S"That's pretty awesome, I'm in the same category as beer."
p42
aS'Ricket'
p43
aS'date unknown'
p44
asI11
(lp45
S'I also accidentally used my pot.'
p46
aS'Ricket'
p47
aS'date unknown'
p48
asI12
(lp49
S'This is my real last one guys if this is ass then I...*procs*'
p50
aS'Ricket'
p51
aS'date unknown'
p52
asI13
(lp53
S'Salad, best word in French.'
p54
aS'Ricket'
p55
aS'date unknown'
p56
asI14
(lp57
S'I\'m almost 5\'3"'
p58
aS'Ricket'
p59
aS'date unknown'
p60
asI15
(lp61
S'If you dont know what sweater puppets are ask Mix'
p62
aS'Ricket'
p63
aS'date unknown'
p64
asI16
(lp65
S'Get your beeg deek in there and face tank that bitch'
p66
aS'Ricket'
p67
aS'date unknown'
p68
asI17
(lp69
S"Mix I... don't want your nudes. Nobody want to see that Mix. Nobody want to see that dude. Soory."
p70
aS'Ricket'
p71
aS'date unknown'
p72
asI18
(lp73
S"I'm gonna murder this song with fire right now."
p74
aS'Ricket'
p75
aS'date unknown'
p76
asI19
(lp77
S"Flid is pretty pretty. Yeah he's man pretty. You can be man pretty."
p78
aS'Ricket'
p79
aS'date unknown'
p80
asI20
(lp81
S'Someone get the ass declencher.'
p82
aS'Ricket'
p83
aS'date unknown'
p84
asI21
(lp85
S'Do it naked.'
p86
aS'Ricket'
p87
aS'date unknown'
p88
asI22
(lp89
S"I'm a 12 year old. Teeheeheehee."
p90
aS'Ricket'
p91
aS'date unknown'
p92
asI23
(lp93
S'Deemora is on drugs.'
p94
aS'Ricket'
p95
aS'date unknown'
p96
asI24
(lp97
S'FUCK! We tried to protect you from the truth. Fucking chat, thanks CHAT!'
p98
aS'Ricket'
p99
aS'date unknown'
p100
asI25
(lp101
S"I'm not really planning on making babies any time... soon..."
p102
aS'Ricket'
p103
aS'date unknown'
p104
asI26
(lp105
S"Reroll the crit? No no no no, I'm not an idiot."
p106
aS'Ricket'
p107
aS'date unknown'
p108
asI27
(lp109
S'We are reasonably intelligent.'
p110
aS'Ricket'
p111
aS'date unknown'
p112
asI28
(lp113
S"It's 3am fucker! And I've been up since 6am, and I've been up for 21 hours actually no I took an hour and aa half nap so... Yeah I'm getting old rip."
p114
aS'Ricket'
p115
aS'date unknown'
p116
asI29
(lp117
S'Doing two things at once is hard.'
p118
aS'Ricket'
p119
aS'date unknown'
p120
asI30
(lp121
S"Soory I'm terrible at numbers and counting..."
p122
aS'Ricket'
p123
aS'date unknown'
p124
asI31
(lp125
S"No it's not a bribe, it's a transaction. It's a trade not really a bribe."
p126
aS'Ricket'
p127
aS'date unknown'
p128
asI32
(lp129
S'Miley help me channel my energy...'
p130
aS'Ricket'
p131
aS'date unknown'
p132
asI33
(lp133
S"Kim you're a beautiful man."
p134
aS'Ricket'
p135
aS'date unknown'
p136
asI34
(lp137
S"Kids aren't slaves."
p138
aS'Ricket'
p139
aS'date unknown'
p140
asI35
(lp141
S"Troll feet are glorious alright they're just so adorable."
p142
aS'Ricket'
p143
aS'date unknown'
p144
asI36
(lp145
S'He can be naked and looks good.'
p146
aS'Ricket'
p147
aS'date unknown'
p148
asI37
(lp149
S'Well, WoW reminds me of troll, troll says mon, mon is Jamaican, Jamaican reminds me of Bob Marley, Bob Marley and weed.'
p150
aS'Ricket'
p151
aS'date unknown'
p152
asI38
(lp153
S"I'm vibrating."
p154
aS'Ricket'
p155
aS'date unknown'
p156
asI39
(lp157
S'I can play like a butthole now.'
p158
aS'Ricket'
p159
aS'date unknown'
p160
asI40
(lp161
S"Flid can be a dude's dude."
p162
aS'Ricket'
p163
aS'date unknown'
p164
asI41
(lp165
S"Don't call them horses call them ponies they sound less scary that way."
p166
aS'Ricket'
p167
aS'date unknown'
p168
asI42
(lp169
S'May CDR is really... anus...'
p170
aS'Ricket'
p171
aS'date unknown'
p172
asI43
(lp173
S'It got so hard.'
p174
aS'Ricket'
p175
aS'date unknown'
p176
asI44
(lp177
S'Flid is awesome; Flid is love; Flid is life.'
p178
aS'Ricket'
p179
aS'date unknown'
p180
asI45
(lp181
S'Fuck places!'
p182
aS'Ricket'
p183
aS'date unknown'
p184
asI46
(lp185
S"Well I don't really wanna say penis... and I just said it so... whatever"
p186
aS'Ricket'
p187
aS'date unknown'
p188
asI47
(lp189
S"I'm INSIDE of him!"
p190
aS'Ricket'
p191
aS'date unknown'
p192
asI48
(lp193
S"What up female dog? Oh wait don't say that... what up BITCH!"
p194
aS'Ricket'
p195
aS'date unknown'
p196
asI49
(lp197
S'You fucking need me BITCHES!'
p198
aS'Ricket'
p199
aS'date unknown'
p200
asI50
(lp201
S'Suck my dick rift!'
p202
aS'Ricket'
p203
aS'date unknown'
p204
asI51
(lp205
S"I'm having a Ricket moment soory."
p206
aS'Ricket'
p207
aS'date unknown'
p208
asI52
(lp209
S'I dreamed the day Shiro would sub me.'
p210
aS'Ricket'
p211
aS'date unknown'
p212
asI53
(lp213
S'Oh yeah fuck that guy... I mean thanks for subbing love ya Shiro'
p214
aS'Ricket'
p215
aS'date unknown'
p216
asI54
(lp217
S'*making random Mickey Mouse noises*'
p218
aS'Ricket'
p219
aS'date unknown'
p220
asI55
(lp221
S'This is an educational stream!'
p222
aS'Ricket'
p223
aS'Feb 17, 2016'
p224
asI56
(lp225
S'Oh my god, so juicy!'
p226
aS'Ricket'
p227
aS'Feb 17, 2016'
p228
asI57
(lp229
S'Smang it, girl!'
p230
aS'Ricket'
p231
aS'Feb 21, 2016'
p232
asI58
(lp233
S'*To her own reflection* Hi.'
p234
aS'Ricket'
p235
aS'Feb 21, 2016'
p236
asI59
(lp237
S"I can't play like an asshole without Flid here."
p238
aS'Ricket'
p239
aS'Feb 21, 2016'
p240
asI60
(lp241
S"I think it's fitting that somebody named Largewood followed me at 10k"
p242
aS'Ricket'
p243
aS'Feb 21, 2016'
p244
asI61
(lp245
S'We all love Ricket'
p246
aS'AllOfChat'
p247
aS'Feb 21, 2016'
p248
asI62
(lp249
S'FalletLords are awful!'
p250
aS'Ricket'
p251
aS'Feb 22, 2016'
p252
asI63
(lp253
S'I plan on not missing any nights tomorrow.'
p254
aS'Ricket'
p255
aS'Feb 22, 2016'
p256
asI64
(lp257
S'"I had two hell hounds on me and I was inside of both of them"'
p258
aS'Ricket'
p259
aS'Feb 23, 2016'
p260
asI65
(lp261
S'My chest is fucking amazing'
p262
aS'Ricket'
p263
aS'Mar 05, 2016'
p264
asI66
(lp265
S'"My favorite shape is the Rektangle"'
p266
aS'Ricket'
p267
aS'Mar 12, 2016'
p268
asI67
(lp269
S'Innuendos are love, innuendos are life. Innuendos make the world go round.'
p270
aS'Ricket'
p271
aS'Mar 19, 2016'
p272
asI68
(lp273
S'I have to be on top to do damage'
p274
aS'Ricket'
p275
aS'Mar 19, 2016'
p276
asI69
(lp277
S"We're gonna all get smang'ed in a different way."
p278
aS'Ricket'
p279
aS'Mar 19, 2016'
p280
asI70
(lp281
S"That's adorkable"
p282
aS'Ricket'
p283
aS'Mar 19, 2016'
p284
asI71
(lp285
S'Get rekt upon, plebeian'
p286
aS'Ricket'
p287
aS'Mar 19, 2016'
p288
asI72
(lp289
S"What's with dropping your pants"
p290
aS'Ricket'
p291
aS'Mar 19, 2016'
p292
asI73
(lp293
S"*making more random Mickey Mouse noises* I don't know."
p294
aS'Ricket'
p295
aS'Mar 19, 2016'
p296
asI74
(lp297
S'I can adorable and a pleb, alright?'
p298
aS'Ricket'
p299
aS'Mar 19, 2016'
p300
asI75
(lp301
S'That sounds very satisfying.'
p302
aS'Ricket'
p303
aS'Mar 19, 2016'
p304
asI76
(lp305
S'*Ricket being horrible at Stardew Valley*'
p306
aS'Ricket'
p307
aS'Mar 19, 2016'
p308
asI77
(lp309
S'Did you see all that wood I just got?'
p310
aS'Ricket'
p311
aS'Mar 19, 2016'
p312
asI78
(lp313
S"Gettin' all dat wood."
p314
aS'Ricket'
p315
aS'Mar 19, 2016'
p316
asI79
(lp317
S'I got 1 hoe proficiency *ricketLaugh*'
p318
aS'Ricket'
p319
aS'Mar 19, 2016'
p320
asI80
(lp321
S'Dumbassosaurus.'
p322
aS'Ricket'
p323
aS'Mar 19, 2016'
p324
asI81
(lp325
S'That was a blasty-blast!'
p326
aS'Ricket'
p327
aS'Mar 19, 2016'
p328
asI82
(lp329
S"You're riding me? Damn."
p330
aS'Ricket'
p331
aS'Mar 19, 2016'
p332
asI83
(lp333
S"You're vibrating!"
p334
aS'Ricket'
p335
aS'Mar 19, 2016'
p336
asI84
(lp337
S'We killed so many people ricketLaugh'
p338
aS'Ricket'
p339
aS'Mar 20, 2016'
p340
asI85
(lp341
S'You have my blood coursing through your veins, you better show me some respect!'
p342
aS'Ricket'
p343
aS'Mar 25, 2016'
p344
asI86
(lp345
S'*Ricket making drunk noises*'
p346
aS'Ricket'
p347
aS'Mar 26, 2016'
p348
asI87
(lp349
S'It tasted good in my mouth hole'
p350
aS'Ricket'
p351
aS'Mar 26, 2016'
p352
asI88
(lp353
S'He just took a massive shit on me'
p354
aS'Ricket'
p355
aS'Mar 26, 2016'
p356
asI89
(lp357
S'My ass hurts from the clench.'
p358
aS'Ricket'
p359
aS'Mar 27, 2016'
p360
asI90
(lp361
S'Good job Eric... ya fuckboy.'
p362
aS'Ricket'
p363
aS'Mar 27, 2016'
p364
asI91
(lp365
S"KDub, I promise I'll play outlast in February."
p366
aS'Ricket'
p367
aS'Mar 27, 2016'
p368
asI92
(lp369
S"15k followers. We're doing another cosplay. It's locked. It's happening."
p370
aS'Ricket'
p371
aS'Mar 27, 2016'
p372
asI93
(lp373
S"What is the strat... kill stuff don't die"
p374
aS'Ricket'
p375
aS'Mar 27, 2016'
p376
asI94
(lp377
S"Don't take my meat... I will take your meat if I want to I need it"
p378
aS'Ricket'
p379
aS'Mar 27, 2016'
p380
asI95
(lp381
S'Get the fuck out of my way, you naked bitch!'
p382
aS'Ricket'
p383
aS'Mar 27, 2016'
p384
asI96
(lp385
S'I would be like Katniss. I would be a vegetarian'
p386
aS'Ricket'
p387
aS'Mar 27, 2016'
p388
asI97
(lp389
S'My body is ready'
p390
aS'Ricket'
p391
aS'Mar 27, 2016'
p392
asI98
(lp393
S"Fuck Shiro dude. Fuck Shiro. That guy's a scumbag"
p394
aS'Ricket'
p395
aS'Mar 27, 2016'
p396
asI99
(lp397
S'Eric, pls alright.'
p398
aS'Ricket'
p399
aS'Mar 27, 2016'
p400
asI100
(lp401
S'I. Can. Feel it. In. My. Bones'
p402
aS'Ricket'
p403
aS'Mar 27, 2016'
p404
asI101
(lp405
S'A little lower..... LEWD!'
p406
aS'Ricket'
p407
aS'Mar 29, 2016'
p408
asI102
(lp409
S'Right and left... how does it work?!'
p410
aS'Ricket'
p411
aS'Mar 29, 2016'
p412
asI103
(lp413
S'I\'m not gonna lie, the first time I read the word I was like "me-me"?'
p414
aS'Ricket'
p415
aS'Mar 29, 2016'
p416
asI104
(lp417
S"I'm 12 years old, and the word taint is funny."
p418
aS'Ricket'
p419
aS'Mar 29, 2016'
p420
asI105
(lp421
S'Your mom does bounties heeeeeeeh.'
p422
aS'Ricket'
p423
aS'Mar 29, 2016'
p424
asI106
(lp425
S"Whoa dude, I'm not even wearing pockets!"
p426
aS'Ricket'
p427
aS'Apr 01, 2016'
p428
asI107
(lp429
S'You can probably get it up, Ricket 2016'
p430
aS'Ricket'
p431
aS'Apr 01, 2016'
p432
asI108
(lp433
S"I'm playing outlast on saturday for KDub <3"
p434
aS'Ricket'
p435
aS'Apr 04, 2016'
p436
asI109
(lp437
S'Each tower is more identical than the last'
p438
aS'Ricket'
p439
aS'Apr 06, 2016'
p440
asI110
(lp441
S'Yeah, I said 30 centimeters. Inb4 it becomes something sexual in chat *arms flailing*'
p442
aS'Ricket'
p443
aS'Apr 07, 2016'
p444
asI111
(lp445
S"Let it go, let it go, I can't climb the ladder anymore."
p446
aS'Ricket'
p447
aS'Apr 07, 2016'
p448
asI112
(lp449
S"If I'm happy, you should be happy. Y'know? Because, happiness is contagious."
p450
aS'Ricket'
p451
aS'Apr 07, 2016'
p452
asI113
(lp453
S'There are no trolls, I AM the troll!'
p454
aS'Ricket'
p455
aS'Apr 07, 2016'
p456
asI114
(lp457
S'Two beavers are better than one'
p458
aS'Ricket'
p459
aS'Apr 07, 2016'
p460
asI115
(lp461
S"I'd say it's average length"
p462
aS'Ricket'
p463
aS'Apr 07, 2016'
p464
asI116
(lp465
S"I'm stuck on the beaver"
p466
aS'Ricket'
p467
aS'Apr 07, 2016'
p468
asI117
(lp469
S'I want a dinosaur called Forehead.'
p470
aS'Ricket'
p471
aS'Apr 08, 2016'
p472
asI118
(lp473
S'I noticed all the nudity like right away'
p474
aS'Ricket'
p475
aS'Apr 10, 2016'
p476
asI119
(lp477
S'Game will win the chair for me'
p478
aS'Ricket'
p479
aS'Apr 10, 2016'
p480
asI120
(lp481
S'Game...here this finger is for you game, you fucking game you...'
p482
aS'Ricket'
p483
aS'Apr 10, 2016'
p484
asI121
(lp485
S'Harder and faster than that!!!!'
p486
aS'Ricket'
p487
aS'Apr 10, 2016'
p488
asI122
(lp489
S"Goddamn it Shiro you so smart i'm so stupid goddamn it..."
p490
aS'Ricket'
p491
aS'Apr 10, 2016'
p492
asI123
(lp493
S'Go down the shaft'
p494
aS'Ricket'
p495
aS'Apr 10, 2016'
p496
asI124
(lp497
S"In the future, we'll do more dookie!"
p498
aS'Ricket'
p499
aS'Apr 10, 2016'
p500
asI125
(lp501
S'Fuck KDub'
p502
aS'Ricket'
p503
aS'Apr 11, 2016'
p504
asI126
(lp505
S"I don't have my pants on!"
p506
aS'Ricket'
p507
aS'Apr 12, 2016'
p508
asI127
(lp509
S"Okay you guys suck whatever we're playing Diablo now."
p510
aS'Ricket'
p511
aS'Apr 18, 2016'
p512
asI128
(lp513
S"I'm gonna RIP.... *RIPs*"
p514
aS'Ricket'
p515
aS'Apr 18, 2016'
p516
asI129
(lp517
S'Holy tits, what?!? Sorry. Pardon my foul mouth. Those gloves got me feeling a special kind of way.'
p518
aS'Ricket'
p519
aS'Apr 18, 2016'
p520
asI130
(lp521
S"I was Shawn's first."
p522
aS'Ricket'
p523
aS'Apr 18, 2016'
p524
asI131
(lp525
S"Ricket rollin'.... She hatin'.... That's all I got."
p526
aS'Ricket'
p527
aS'Apr 19, 2016'
p528
asI132
(lp529
S'You can do it with a spoon!'
p530
aS'Ricket'
p531
aS'Apr 22, 2016'
p532
asI133
(lp533
S"I'm doin' stuff, leave me alone man!"
p534
aS'Ricket'
p535
aS'Apr 26, 2016'
p536
asI134
(lp537
S"Dammit Mix, why can't you be more like Shiro?"
p538
aS'Ricket'
p539
aS'May 03, 2016'
p540
asI135
(lp541
S'When I drink I forget how to make a game. I forget how to lobby.'
p542
aS'Ricket'
p543
aS'May 04, 2016'
p544
asI136
(lp545
S"Soory I can't wink that well my face contorts when I do."
p546
aS'Ricket'
p547
aS'May 05, 2016'
p548
asI137
(lp549
S'Hey I said a lot of smart stuff you guys never quote THAT.'
p550
aS'Ricket'
p551
aS'May 05, 2016'
p552
asI138
(lp553
S'Quote bot makes me sound like a lewd moron!'
p554
aS'Ricket'
p555
aS'May 05, 2016'
p556
asI139
(lp557
S'Be your maple syrup moma~, your Georgia dada...'
p558
aS'Ricket'
p559
aS'May 05, 2016'
p560
asI140
(lp561
S'Be your maple syrup moma~, your Georgia dada...'
p562
aS'Ricket'
p563
aS'May 05, 2016'
p564
asI141
(lp565
S"420 bro! Look at my blood shard count. SMOKE WEED ERRY'DAY. YEP. BLAZE IT."
p566
aS'Ricket'
p567
aS'May 05, 2016'
p568
asI142
(lp569
S'I prolly have bigger balls than you do!!'
p570
aS'Ricket'
p571
aS'May 09, 2016'
p572
asI143
(lp573
S'*intermittently rapping*'
p574
aS'Ricket'
p575
aS'May 09, 2016'
p576
asI144
(lp577
S'I was gonna make a lewd joke, but never mind. Something about 10 seconds.... Every second counts.'
p578
aS'Ricket'
p579
aS'May 09, 2016'
p580
asI145
(lp581
VI'm girthy
p582
aVRicket
p583
aVMay 09, 2016
p584
asI146
(lp585
S"I'm just gonna get drunk if I rip."
p586
aVRicket
p587
aVMay 09, 2016
p588
asI147
(lp589
S'Fuck that wall, as Kool-Aid man did!'
p590
aS'Ricket'
p591
aS'May 09, 2016'
p592
asI148
(lp593
S'Oh my gob!'
p594
aS'Ricket'
p595
aS'May 10, 2016'
p596
asI149
(lp597
S'That\'s when you say "because I\'m gay".'
p598
aS'Ricket'
p599
aS'May 10, 2016'
p600
asI150
(lp601
S'Give me your tactical bacon!'
p602
aS'Ricket'
p603
aS'May 10, 2016'
p604
asI151
(lp605
S"Oh god. StuffRicketSays. Shawn is inside you, sayin' stuff."
p606
aS'Ricket'
p607
aS'May 10, 2016'
p608
asI152
(lp609
S'Fuck this stream. Too much pleb!'
p610
aS'Ricket'
p611
aS'May 10, 2016'
p612
asI153
(lp613
S'Density I am inside of you!'
p614
aS'Ricket'
p615
aS'May 10, 2016'
p616
asI154
(lp617
S'Flid is INSIDE the stream! He smanged the sub button before I knew it existed!'
p618
aS'Ricket'
p619
aS'May 11, 2016'
p620
asI155
(lp621
S"If I'm so cute you should sub FUCKER."
p622
aS'Ricket'
p623
aS'May 12, 2016'
p624
asI156
(lp625
S'You could use that beer and wings money to sub to me you cheap FUCK!'
p626
aS'Ricket'
p627
aS'May 12, 2016'
p628
asI157
(lp629
S'I cannot just be a casual'
p630
aS'Ricket'
p631
aS'May 12, 2016'
p632
asI158
(lp633
S'but not sexual poundtown... like family poundtown'
p634
aS'Ricket'
p635
aS'May 12, 2016'
p636
asI159
(lp637
VI LOVE Buzz
p638
aVRicket
p639
aVMay 11, 2016
p640
asI160
(lp641
VSave ricketHey!
p642
aVRicket
p643
aVMay 12, 2016
p644
asI161
(lp645
S'I love Buzz a lot.'
p646
aS'Ricket'
p647
aS'May 14, 2016'
p648
asI162
(lp649
S"Lumberjack? I have a lewd response but I'm not gonna say it...ok screw it I'm gonna say it - you want to to give me your WOOD?"
p650
aS'Ricket'
p651
aS'May 14, 2016'
p652
asI163
(lp653
S"I'm not insulting you I'm threatening you it's different."
p654
aS'Ricket'
p655
aS'May 15, 2016'
p656
asI164
(lp657
S'Gotta wave with two hands, what up?'
p658
aS'Ricket'
p659
aS'May 16, 2016'
p660
asI165
(lp661
S'I love Buzz a lot.'
p662
aVRicket
p663
aVMay 14, 2016
p664
asI166
(lp665
S'I will try and do anything to entertain you.'
p666
aVRicket
p667
aVMay 14, 2016
p668
asI167
(lp669
S'Diablo... Please, suck my nuts.'
p670
aVRicket
p671
aVMay 15, 2016
p672
asI168
(lp673
VSkip is the best, Skip is so sweet.
p674
aVRicket
p675
aVMay 15, 2016
p676
asI169
(lp677
S"They neigh neigh. Get it. It's a horse pun. *crickets*"
p678
aS'Ricket'
p679
aS'May 17, 2016'
p680
asI170
(lp681
S'Blizzard.... *middle finger*'
p682
aS'Ricket'
p683
aS'May 17, 2016'
p684
asI171
(lp685
S"Lets go to the mall... today. Having fun's what it's all aboot."
p686
aS'Ricket'
p687
aS'May 17, 2016'
p688
asI172
(lp689
S"Let's go to the desktop... TODAY."
p690
aS'Ricket'
p691
aS'May 17, 2016'
p692
asI173
(lp693
S'Ready? Boom boom!'
p694
aS'Ricket'
p695
aS'May 17, 2016'
p696
asI174
(lp697
S'Acronyms are retarded, dude!'
p698
aS'Ricket'
p699
aS'May 17, 2016'
p700
asI175
(lp701
S'Okay, here I am. Rock you like a hurricane.'
p702
aS'Ricket'
p703
aS'May 17, 2016'
p704
asI176
(lp705
S"I'm very non-communicative tonight with my boom booms."
p706
aS'Ricket'
p707
aS'May 17, 2016'
p708
asI177
(lp709
S"I'm not even in my final foooorm."
p710
aS'Ricket'
p711
aS'May 17, 2016'
p712
asI178
(lp713
S'A good tip for hardcore, as dumb as it sounds, "don\'t die"'
p714
aS'Ricket'
p715
aS'May 17, 2016'
p716
asI179
(lp717
S'Praise the archon... and the MARVELOUS woman who plays it.'
p718
aS'Ricket'
p719
aS'May 17, 2016'
p720
asI180
(lp721
S"I don't wanna say spread. I almost said spread, but then I said lay, so I don't know which word's worse."
p722
aS'Ricket'
p723
aS'May 17, 2016'
p724
asI181
(lp725
S"We're getting popcorn, and I'm gonna throw it at people. Just kidding popcorn is delicious and shouldn't be wasted."
p726
aS'Ricket'
p727
aS'May 17, 2016'
p728
asI182
(lp729
S'My archon brings all the mobs to the yard.'
p730
aS'Ricket'
p731
aS'May 18, 2016'
p732
asI183
(lp733
S'Also, suck it, Buzz.'
p734
aS'Ricket'
p735
aS'May 18, 2016'
p736
asI184
(lp737
S"Me and my APD's. Grifts will be a breeze."
p738
aS'Ricket'
p739
aS'May 18, 2016'
p740
asI185
(lp741
S'But wait! When you kill one pack, and click this pylon, you get a second pack FREE.'
p742
aS'Ricket'
p743
aS'May 19, 2016'
p744
asI186
(lp745
S'I suck, hold on!'
p746
aS'Ricket'
p747
aS'May 19, 2016'
p748
asI187
(lp749
S'I wish I could disable chat on Twitch. *disrespects all of chat*'
p750
aS'Ricket'
p751
aS'May 19, 2016'
p752
asI188
(lp753
S"I'm dirty Dan!"
p754
aS'Ricket'
p755
aS'May 19, 2016'
p756
asI189
(lp757
S"Uhn tiss, uhn tiss, uhn tiss. No, that's the song name!"
p758
aS'Ricket'
p759
aS'May 19, 2016'
p760
asI190
(lp761
S'About time I got lucky, fuck!'
p762
aS'Ricket'
p763
aS'May 19, 2016'
p764
asI191
(lp765
S"Deemora you're beautiful love you, for real this time."
p766
aS'Ricket'
p767
aS'May 19, 2016'
p768
asI192
(lp769
S"Frappuccino, cappuccino, what's the difference? I don't know!"
p770
aS'Ricket'
p771
aS'May 19, 2016'
p772
asI193
(lp773
S"Let's do it, Dirty Dan!"
p774
aS'Ricket'
p775
aS'May 19, 2016'
p776
asI194
(lp777
S'Sorry for the derpus malerpus. It happens.'
p778
aS'Ricket'
p779
aS'May 19, 2016'
p780
asI195
(lp781
S"That's kind of a land...benchmark....milestone."
p782
aS'Ricket'
p783
aS'May 19, 2016'
p784
asI196
(lp785
S'DirtyDansGame'
p786
aS'Ricket'
p787
aS'May 19, 2016'
p788
asI197
(lp789
S'I fucked up. Story of my life tonight.'
p790
aS'Ricket'
p791
aS'May 19, 2016'
p792
asI198
(lp793
S"Now, I'm working for you guys!"
p794
aS'Ricket'
p795
aS'May 19, 2016'
p796
asI199
(lp797
S'I listened to that song before it was cool.'
p798
aS'Ricket'
p799
aS'May 21, 2016'
p800
asI200
(lp801
S'I get a little bit Genghis Khan.'
p802
aS'Ricket'
p803
aS'May 21, 2016'
p804
asI201
(lp805
S'Get deleted, fucker!'
p806
aS'Ricket'
p807
aS'May 21, 2016'
p808
asI202
(lp809
S'Fuckerrrrr'
p810
aS'Ricket'
p811
aS'May 21, 2016'
p812
asI203
(lp813
S'*arms flailing* Blah blah blah blah blah blah blah'
p814
aS'Ricket'
p815
aS'May 21, 2016'
p816
asI204
(lp817
VI want to live... and climb ladders... and then die!
p818
aVRicket
p819
aVMay 22, 2016
p820
asI205
(lp821
S"Wow. I can't talk."
p822
aS'Ricket'
p823
aS'May 24, 2016'
p824
asI206
(lp825
S"I'm salty, I'm not voting for these people!"
p826
aS'Ricket'
p827
aS'May 24, 2016'
p828
asI207
(lp829
S'I sat in queue for that?!?! *middle fingers*'
p830
aS'Ricket'
p831
aS'May 24, 2016'
p832
asI208
(lp833
S"If you were an ad I'll never block you~."
p834
aS'Ricket'
p835
aS'May 26, 2016'
p836
asI209
(lp837
S'Biotches.'
p838
aS'Ricket'
p839
aS'Jun 04, 2016'
p840
asI210
(lp841
S"I'm bee-autiful"
p842
aS'Ricket'
p843
aS'Jun 04, 2016'
p844
asI211
(lp845
S"Ants bite? Not Canadian ants, they're too nice."
p846
aS'Ricket'
p847
aS'Jun 04, 2016'
p848
asI212
(lp849
S'Soory I crawled on your picnic, soory!'
p850
aS'Ricket'
p851
aS'Jun 04, 2016'
p852
asI213
(lp853
S"I've stopped saying stupid stuff. JK, who am I kidding?"
p854
aS'Ricket'
p855
aS'Jun 04, 2016'
p856
asI214
(lp857
S"I'm a robot."
p858
aS'Ricket'
p859
aS'Jun 06, 2016'
p860
asI215
(lp861
S"I have SO many NeoPoints dude, you don't even know."
p862
aS'Ricket'
p863
aS'Jun 06, 2016'
p864
asI216
(lp865
S"I'm not a NeoPet elitist, I'm just better than you."
p866
aS'Ricket'
p867
aS'Jun 06, 2016'
p868
asI217
(lp869
S'I was doing some weird shit with my head.'
p870
aS'Ricket'
p871
aS'Jun 10, 2016'
p872
asI218
(lp873
S'Daaaabu!'
p874
aS'Ricket'
p875
aS'Jun 11, 2016'
p876
asI219
(lp877
S'"What I told you I have a foot fetish"'
p878
aS'Ricket'
p879
aS'Jun 12, 2016'
p880
asI220
(lp881
S'What constitutes a butthole?'
p882
aS'Ricket'
p883
aS'Jun 12, 2016'
p884
asI221
(lp885
S'Back in my old school we never explored the human body.'
p886
aS'Ricket'
p887
aS'Jun 12, 2016'
p888
asI222
(lp889
S'Jiminy Ricket'
p890
aS'Ricket'
p891
aS'Jun 15, 2016'
p892
asI223
(lp893
S'It will be the moo-st amazing picture ever... I need a better pun.'
p894
aS'Ricket'
p895
aS'Jun 15, 2016'
p896
asI224
(lp897
S"I'M DOIN' STUFF not really."
p898
aS'Ricket'
p899
aS'Jun 15, 2016'
p900
asI225
(lp901
S'"Nice pants" - I know, they\'re fuckin\' beautiful.'
p902
aS'Ricket'
p903
aS'Jun 15, 2016'
p904
asI226
(lp905
S"Look at that thing. I don't like it. It's like a mouth with legs."
p906
aS'Ricket'
p907
aS'Jun 15, 2016'
p908
asI227
(lp909
S'I am sassier than thou art.'
p910
aS'Ricket'
p911
aS'Jun 15, 2016'
p912
asI228
(lp913
S"I was gonna cuss, then I stopped myself. Aren't you proud of me?"
p914
aS'Ricket'
p915
aS'Jun 15, 2016'
p916
asI229
(lp917
S"I think I had a dream about Flid, don't tell him!"
p918
aS'Ricket'
p919
aS'Jun 15, 2016'
p920
asI230
(lp921
S'I know nothing Jon Snow when it comes to monk.'
p922
aS'Ricket'
p923
aS'Jun 15, 2016'
p924
asI231
(lp925
S"Donate all your American dollars and wine to me. I'll take good care of it. Especially the wine."
p926
aS'Ricket'
p927
aS'Jun 16, 2016'
p928
asI232
(lp929
S'That quote is so true. It sounds like something I would say. I mean. I just said it.'
p930
aS'Ricket'
p931
aS'Jun 16, 2016'
p932
asI233
(lp933
S"I have a pet cat. Well. I'm his pet, because cats don't work that way."
p934
aS'Ricket'
p935
aS'Jun 16, 2016'
p936
asI234
(lp937
S"I wish I had Jessie's grill."
p938
aS'Ricket'
p939
aS'Jun 16, 2016'
p940
asI235
(lp941
S"Damnit Jim! I'm not a doctor!"
p942
aS'Ricket'
p943
aS'Jun 16, 2016'
p944
asI236
(lp945
S'Cloud is getting violated, KappaPride'
p946
aS'Ricket'
p947
aS'Jun 16, 2016'
p948
asI237
(lp949
S'Fucker!..... thanks for the burrito.'
p950
aS'Ricket'
p951
aS'Jun 16, 2016'
p952
asI238
(lp953
S"Yea hardcore that's important"
p954
aS'Ricket'
p955
aS'Jun 16, 2016'
p956
asI239
(lp957
S'I know tutu is a skirt but when I was young I referred to stuffed animals as tutus...'
p958
aS'Ricket'
p959
aS'Jun 16, 2016'
p960
asI240
(lp961
S'Shawn, I have a love/hate relationship with your bot... and you.'
p962
aS'Ricket'
p963
aS'Jun 16, 2016'
p964
asI241
(lp965
S"It's hot like a shaft"
p966
aS'Ricket'
p967
aS'Jun 16, 2016'
p968
asI242
(lp969
S'RANK ONE ASS!'
p970
aS'Ricket'
p971
aS'Jun 16, 2016'
p972
asI243
(lp973
S"I looked at the Firehouse subs menu. They look so good. Bangable with my mouth.... I can't believe I said that."
p974
aS'Ricket'
p975
aS'Jun 16, 2016'
p976
asI244
(lp977
S'What if there was wing flavored ice cream? I realize how stupid that was as I said it.'
p978
aS'Ricket'
p979
aS'Jun 16, 2016'
p980
asI245
(lp981
S'It tastes salty and sweet and it looks disgusting but it actually tastes really good'
p982
aS'Ricket'
p983
aS'Jun 16, 2016'
p984
asI246
(lp985
S'I pulled it out of rickets blackhole - Flidro'
p986
aS'Ricket'
p987
aS'Jun 26, 2016'
p988
asI247
(lp989
S"I don't know were just talking cause words"
p990
aS'Ricket'
p991
aS'Jun 27, 2016'
p992
asI248
(lp993
S'Mix knows all, never question Mix'
p994
aS'Ricket'
p995
aS'Jun 27, 2016'
p996
asI249
(lp997
S'Belt keeps your pants on. Sure...sure they do...'
p998
aS'Ricket'
p999
aS'Jun 28, 2016'
p1000
asI250
(lp1001
S'Shut the Fuck UP MIX!!'
p1002
aS'Ricket'
p1003
aS'Jun 28, 2016'
p1004
asI251
(lp1005
S'It is like a shit shack really...'
p1006
aS'Ricket'
p1007
aS'Jun 30, 2016'
p1008
asI252
(lp1009
S"Boop beep boop badop boop bop, you're a ro-butt."
p1010
aS'Ricket'
p1011
aS'Jul 02, 2016'
p1012
asI253
(lp1013
S'RIP I am outta shit'
p1014
aS'Ricket'
p1015
aS'Jul 02, 2016'
p1016
asI254
(lp1017
S'Sabbath > Maiden'
p1018
aS'Ricket'
p1019
aS'Jul 03, 2016'
p1020
asI255
(lp1021
S'Pimp my Barb!'
p1022
aS'Ricket'
p1023
aS'Jul 03, 2016'
p1024
asI256
(lp1025
S"I wasn't really singing I was just sing...songing along, I...wasn't singing."
p1026
aS'Ricket'
p1027
aS'Jul 12, 2016'
p1028
asI257
(lp1029
S'Deemora is a goon he is a drunk goon!'
p1030
aS'Ricket'
p1031
aS'Jul 16, 2016'
p1032
asI258
(lp1033
S'Dear rift... \xe5\x87\xb8-_-'
p1034
aS'Ricket'
p1035
aS'Jul 16, 2016'
p1036
asI259
(lp1037
S"I don't like Mankey. Mankey is stupid."
p1038
aS'Ricket'
p1039
aS'Jul 17, 2016'
p1040
asI260
(lp1041
S"I don't wanna trade my Pokemon for candy, fuck that!"
p1042
aS'Ricket'
p1043
aS'Jul 18, 2016'
p1044
asI261
(lp1045
S'I get a little bit Gengar Khan'
p1046
aS'Ricket'
p1047
aS'Jul 18, 2016'
p1048
asI262
(lp1049
S'Console DansGame .'
p1050
aS'Ricket'
p1051
aS'Jul 18, 2016'
p1052
asI263
(lp1053
S'I like subs, please subscribe to me.'
p1054
aS'Ricket'
p1055
aS'Jul 18, 2016'
p1056
asI264
(lp1057
S"I'm gonna be a Pokemon Master in Pokemon GO. Dude I knew I was gonna get addicted to this stupid game!"
p1058
aS'Ricket'
p1059
aS'Jul 18, 2016'
p1060
asI265
(lp1061
S"There's probably a ton of Pokemon at the golf course!"
p1062
aS'Ricket'
p1063
aS'Jul 18, 2016'
p1064
asI266
(lp1065
S"I'M SORRY I HAVE TO GO CATCH A CATERPIE"
p1066
aS'Ricket'
p1067
aS'Jul 18, 2016'
p1068
asI267
(lp1069
S"I'll catch you Caterpie. You just fuckin' wait."
p1070
aS'Ricket'
p1071
aS'Jul 18, 2016'
p1072
asI268
(lp1073
S'*raging about not catching a Caterpie*'
p1074
aS'Ricket'
p1075
aS'Jul 18, 2016'
p1076
asI269
(lp1077
S'I need a Blastoise named Hoser!'
p1078
aS'Ricket'
p1079
aS'Jul 18, 2016'
p1080
asI270
(lp1081
S'what do you MEAN ricketMath ?? I mathed that perfectly you fuckers!'
p1082
aS'Ricket'
p1083
aS'Jul 18, 2016'
p1084
asI271
(lp1085
S"*playing with her phone* No, I'm not looking for Pokemon!"
p1086
aS'Ricket'
p1087
aS'Jul 18, 2016'
p1088
asI272
(lp1089
S'what is with this babby making music'
p1090
aS'Ricket'
p1091
aS'Jul 18, 2016'
p1092
asI273
(lp1093
S'Dude, that guitar would be big spoon'
p1094
aS'Ricket'
p1095
aS'Jul 18, 2016'
p1096
asI274
(lp1097
S'Pikachu! eh?'
p1098
aS'Ricket'
p1099
aS'Jul 18, 2016'
p1100
asI275
(lp1101
S'*grumpy voice* Why are there no Pokemon spawning on me...?'
p1102
aS'Ricket'
p1103
aS'Jul 19, 2016'
p1104
asI276
(lp1105
S"Time flies when you're clenching your butt"
p1106
aS'Ricket'
p1107
aS'Jul 21, 2016'
p1108
asI277
(lp1109
S"It's almost like a Slap Chop but it's not shitty."
p1110
aS'Ricket'
p1111
aS'Jul 21, 2016'
p1112
asI278
(lp1113
S'Moobutt!'
p1114
aS'Ricket'
p1115
aS'Jul 21, 2016'
p1116
asI279
(lp1117
S"I'm not winking at you guys."
p1118
aS'Ricket'
p1119
aS'Jul 22, 2016'
p1120
asI280
(lp1121
S'I feel like Pokemon GO is making me better at Twitter.'
p1122
aS'Ricket'
p1123
aS'Jul 22, 2016'
p1124
asI281
(lp1125
S"I'm sure a 12 year old has seen worse. I'm not that bad.... Usually."
p1126
aS'Ricket'
p1127
aS'Jul 22, 2016'
p1128
asI282
(lp1129
S'Fuck this waffle map!'
p1130
aS'Ricket'
p1131
aS'Jul 22, 2016'
p1132
asI283
(lp1133
S"Why can't I just have eyes that aren't terrible?"
p1134
aS'Ricket'
p1135
aS'Jul 22, 2016'
p1136
asI284
(lp1137
S'Make Diablo great again!'
p1138
aS'Ricket'
p1139
aS'Jul 22, 2016'
p1140
asI285
(lp1141
S'I almost turned into a Super Saiyan there for a second. AAAAHHHHHHHHHHHHHH!'
p1142
aS'Ricket'
p1143
aS'Jul 22, 2016'
p1144
asI286
(lp1145
S"It's like mitosis man! It splits in two!"
p1146
aS'Ricket'
p1147
aS'Jul 26, 2016'
p1148
asI287
(lp1149
S'I run heedlessly to the right...'
p1150
aS'Ricket'
p1151
aS'Jul 26, 2016'
p1152
asI288
(lp1153
S'Tim Hortons is lit'
p1154
aS'Ricket'
p1155
aS'Jul 26, 2016'
p1156
asI289
(lp1157
S"I don't care, I'm gonna wreck 'em!"
p1158
aS'Ricket'
p1159
aS'Jul 28, 2016'
p1160
asI290
(lp1161
S"I'll show you my middle finger if you don't shut up!"
p1162
aS'Ricket'
p1163
aS'Aug 01, 2016'
p1164
asI291
(lp1165
S'*playing Triple Triad* FUCK!'
p1166
aS'Ricket'
p1167
aS'Aug 01, 2016'
p1168
asI292
(lp1169
S'Thunder, get in my pants!'
p1170
aS'Ricket'
p1171
aS'Aug 02, 2016'
p1172
asI293
(lp1173
S"It's part of the plan man!"
p1174
aS'Ricket'
p1175
aS'Aug 02, 2016'
p1176
asI294
(lp1177
S'Fuck you, Zell!'
p1178
aS'Ricket'
p1179
aS'Aug 02, 2016'
p1180
asI295
(lp1181
S"If he attacks Zell, I'm gonna have a fucking fitOHMYGOD"
p1182
aS'Ricket'
p1183
aS'Aug 02, 2016'
p1184
asI296
(lp1185
S"I'll just summon Shiva, because apparently everyone in the channel has a problem with Leviathan!"
p1186
aS'Ricket'
p1187
aS'Aug 02, 2016'
p1188
asI297
(lp1189
S"I'm gonna cosplay as LEVIATHAN! ricketLaugh"
p1190
aS'Ricket'
p1191
aS'Aug 02, 2016'
p1192
asI298
(lp1193
S"Leviathan, everyone's favorite summon."
p1194
aS'Ricket'
p1195
aS'Aug 02, 2016'
p1196
asI299
(lp1197
S"I'm not gonna say anything dumb all night!"
p1198
aS'Ricket'
p1199
aS'Aug 02, 2016'
p1200
asI300
(lp1201
S'Aura, get in my pants!'
p1202
aS'Ricket'
p1203
aS'Aug 02, 2016'
p1204
asI301
(lp1205
S"Apparently I can disembark here. I almost said 'get off', but I stopped, because you guys are children."
p1206
aS'Ricket'
p1207
aS'Aug 02, 2016'
p1208
asI302
(lp1209
S"Put pants on? No! I'm streaming pantsless!"
p1210
aS'Ricket'
p1211
aS'Aug 03, 2016'
p1212
asI303
(lp1213
S'Daaaaahkside'
p1214
aS'Ricket'
p1215
aS'Aug 03, 2016'
p1216
asI304
(lp1217
S"I guess I'm a murderer \xc2\xaf\\_(\xe3\x83\x84)_/\xc2\xaf"
p1218
aS'Ricket'
p1219
aS'Aug 04, 2016'
p1220
asI305
(lp1221
S'Dude, I would wear a dragon costume if someone paid me for it!'
p1222
aS'Ricket'
p1223
aS'Aug 04, 2016'
p1224
asI306
(lp1225
S'Let me shrekt you!'
p1226
aS'Ricket'
p1227
aS'Aug 04, 2016'
p1228
asI307
(lp1229
S'Holy get in my pants!'
p1230
aS'Ricket'
p1231
aS'Aug 04, 2016'
p1232
asI308
(lp1233
S"Curaga, get in Qustis' pants. Or skirt. Or whatever."
p1234
aS'Ricket'
p1235
aS'Aug 04, 2016'
p1236
asI309
(lp1237
S'RIP Cerberus, never forget, I love you boy.'
p1238
aS'Ricket'
p1239
aS'Aug 04, 2016'
p1240
asI310
(lp1241
S"Thanks Cid, I'll be on my way.... asshole!"
p1242
aS'Ricket'
p1243
aS'Aug 04, 2016'
p1244
asI311
(lp1245
S"Squall's actually a smart mother fucker, but that's so unromantic."
p1246
aS'Ricket'
p1247
aS'Aug 04, 2016'
p1248
asI312
(lp1249
S"I CAN'T GO EAST THERE'S A CRATER THERE YOU FUCK!"
p1250
aS'Ricket'
p1251
aS'Aug 04, 2016'
p1252
asI313
(lp1253
S'Jennaaaaay'
p1254
aS'Ricket'
p1255
aS'Aug 05, 2016'
p1256
asI314
(lp1257
S"I'm tilted.... Literally!"
p1258
aS'Ricket'
p1259
aS'Aug 05, 2016'
p1260
asI315
(lp1261
S"This fuckboy!!.... actually it's a girl."
p1262
aS'Ricket'
p1263
aS'Aug 05, 2016'
p1264
asI316
(lp1265
S'*playing Triple Triad* Argghhh DansGame .'
p1266
aS'Ricket'
p1267
aS'Aug 05, 2016'
p1268
asI317
(lp1269
S'Oh. My. God. Becky, look at the damage he just did. It is SO big.'
p1270
aS'Ricket'
p1271
aS'Aug 05, 2016'
p1272
asI318
(lp1273
S'What does Angel Wing do, boys? And girls? And Shawns?'
p1274
aS'Ricket'
p1275
aS'Aug 05, 2016'
p1276
asI319
(lp1277
S"You're bummed about flying a cool ass red space ship that looks like a dragon?!"
p1278
aS'Ricket'
p1279
aS'Aug 05, 2016'
p1280
asI320
(lp1281
S'Gonna buy you one when I WAIFU you!!!'
p1282
aS'Ricket'
p1283
aS'Aug 05, 2016'
p1284
asI321
(lp1285
S'I had to fight a shitload of aliens, then a hot girl came onto me and sat on my lap. I had it way worse than you!'
p1286
aS'Ricket'
p1287
aS'Aug 05, 2016'
p1288
asI322
(lp1289
S'That Garden was shit. Fuck the Garden!'
p1290
aS'Ricket'
p1291
aS'Aug 05, 2016'
p1292
asI323
(lp1293
S'I just got like...crazy good pants.'
p1294
aS'Ricket'
p1295
aS'Aug 05, 2016'
p1296
asI324
(lp1297
S'Stupid hot.'
p1298
aS'Ricket'
p1299
aS'Aug 05, 2016'
p1300
asI325
(lp1301
S'I had a dream that this was the right way to go... I was wrong.'
p1302
aS'Ricket'
p1303
aS'Aug 05, 2016'
p1304
asI326
(lp1305
S"Dude, I'm falling apart."
p1306
aS'Ricket'
p1307
aS'Aug 06, 2016'
p1308
asI327
(lp1309
S'Do you trust your two piece?'
p1310
aS'Ricket'
p1311
aS'Aug 06, 2016'
p1312
asI328
(lp1313
S'Shawn I love you this made my night I love you!'
p1314
aS'Ricket'
p1315
aS'Aug 06, 2016'
p1316
asI329
(lp1317
S"Dude, what if the world IS flat, and it's just an endless plane that repeats itself?"
p1318
aS'Ricket'
p1319
aS'Aug 06, 2016'
p1320
asI330
(lp1321
S'I wanna quote, too!'
p1322
aS'Ricket'
p1323
aS'Aug 06, 2016'
p1324
asI331
(lp1325
S"Fuck the Babymetal! No, there's more of it?! Stop!"
p1326
aS'Ricket'
p1327
aS'Aug 06, 2016'
p1328
asI332
(lp1329
S'Some of the time, I can be a real A-hole'
p1330
aS'Ricket'
p1331
aS'Aug 06, 2016'
p1332
asI333
(lp1333
S"I SHOULD open a restaurant called 'I'm Not Paragon 1200 Yet'. The only menu item we'll have is salt."
p1334
aS'Ricket'
p1335
aS'Aug 06, 2016'
p1336
asI334
(lp1337
S"Dude, I've done so much dumb shit on this stream so far, it's great!"
p1338
aS'Ricket'
p1339
aS'Aug 06, 2016'
p1340
asI335
(lp1341
S"I hate you Shawn, I'm running away! You can't control me. I'm going to live with Uncle Flidro! He'll let me play Diablo as much as I want."
p1342
aS'Ricket'
p1343
aS'Aug 06, 2016'
p1344
asI336
(lp1345
S'Shawn gives me a warm and fuzzy feeling inside... Kappa'
p1346
aS'Ricket'
p1347
aS'Aug 06, 2016'
p1348
asI337
(lp1349
S'Halle-fuckin-lujah!!'
p1350
aS'Ricket'
p1351
aS'Aug 08, 2016'
p1352
asI338
(lp1353
S"Shawn you're fucking beautiful...you're beautiful even Deemora agrees."
p1354
aS'Ricket'
p1355
aS'Aug 09, 2016'
p1356
asI339
(lp1357
S'I want something so powerful it can split an atom.'
p1358
aS'Ricket'
p1359
aS'Aug 09, 2016'
p1360
asI340
(lp1361
S'Girthy slice of pizza.'
p1362
aS'Ricket'
p1363
aS'Aug 09, 2016'
p1364
asI341
(lp1365
S'You gotta put butter in that bitch'
p1366
aS'Ricket'
p1367
aS'Aug 09, 2016'
p1368
asI342
(lp1369
S"Bustin' makes me feel good!"
p1370
aS'Ricket'
p1371
aS'Aug 09, 2016'
p1372
asI343
(lp1373
S"I'm the guy who knows all the Pokemon. Fuck Flidro!"
p1374
aS'Ricket'
p1375
aS'Aug 09, 2016'
p1376
asI344
(lp1377
S"I'm sorry, Shawn's guitar. You're beautiful."
p1378
aS'Ricket'
p1379
aS'Aug 09, 2016'
p1380
asI345
(lp1381
S"Now I smell like bread, and cheese. I don't know why."
p1382
aS'Ricket'
p1383
aS'Aug 09, 2016'
p1384
asI346
(lp1385
S'Y...you shower before you sleep really???'
p1386
aS'Ricket'
p1387
aS'Aug 09, 2016'
p1388
asI347
(lp1389
S"Fuck you, I'm tankin'!.... which is probably a horrible idea, outtie!"
p1390
aS'Ricket'
p1391
aS'Aug 09, 2016'
p1392
asI348
(lp1393
S'I wanna be the bell! Ding ding ding! Ding ding ding!'
p1394
aS'Ricket'
p1395
aS'Aug 10, 2016'
p1396
asI349
(lp1397
S'*Flidro singing* MY EARS. STOP IT.'
p1398
aS'Ricket'
p1399
aS'Aug 10, 2016'
p1400
asI350
(lp1401
S'Go to the dump, watch the bears eat garbage. That would be a good first date.'
p1402
aS'Ricket'
p1403
aS'Aug 10, 2016'
p1404
asI351
(lp1405
S"*Beans in my Ears comes on* NO! I'M NOT EVEN LISTENING TO THE FIRST LINE OF THAT SONG"
p1406
aS'Ricket'
p1407
aS'Aug 10, 2016'
p1408
asI352
(lp1409
S'My favorite number is pizza.'
p1410
aS'Ricket'
p1411
aS'Aug 10, 2016'
p1412
asI353
(lp1413
S'My favorite data structure? Probably herb and garlic.'
p1414
aS'Ricket'
p1415
aS'Aug 10, 2016'
p1416
asI354
(lp1417
S'I think for my birthday I want 13k followers.'
p1418
aS'Ricket'
p1419
aS'Aug 10, 2016'
p1420
asI355
(lp1421
S"Fuck you sunlight! I'll show you who is boss"
p1422
aS'Ricket'
p1423
aS'Aug 10, 2016'
p1424
asI356
(lp1425
S"I just got expelled from Shawn's University of Computer Science because of you, Flid!"
p1426
aS'Ricket'
p1427
aS'Aug 10, 2016'
p1428
asI357
(lp1429
S"It's not 867-5309, it's 867-530niiiiIiiiIiiiIIiIIiiIiine"
p1430
aS'Ricket'
p1431
aS'Aug 10, 2016'
p1432
asI358
(lp1433
S'Where can I find a woman like that, Natalie Dormer.'
p1434
aS'Ricket'
p1435
aS'Aug 10, 2016'
p1436
asI359
(lp1437
S"Maybe I'm ricketMath ing"
p1438
aVRicket
p1439
aVAug 10, 2016
p1440
asI360
(lp1441
S'This is Canada. We use kilometers, you fuck!'
p1442
aS'Ricket'
p1443
aS'Aug 10, 2016'
p1444
asI361
(lp1445
S"You've gotta do the dog noises OhMyDog OhMyDog"
p1446
aS'Ricket'
p1447
aS'Aug 10, 2016'
p1448
asI362
(lp1449
S'Wuck FoW FeelsGoodMan .'
p1450
aS'Ricket'
p1451
aS'Aug 10, 2016'
p1452
asI363
(lp1453
S'I made a boat pun!'
p1454
aS'Ricket'
p1455
aS'Aug 10, 2016'
p1456
asI364
(lp1457
S'If you can dodge a wrench, you can dodge a molten!'
p1458
aS'Ricket'
p1459
aS'Aug 11, 2016'
p1460
asI365
(lp1461
S"There's no snow outside, you fucker!"
p1462
aS'Ricket'
p1463
aS'Aug 11, 2016'
p1464
asI366
(lp1465
S"Where's your sandwich? Over there. Kappa ."
p1466
aS'Ricket'
p1467
aS'Aug 11, 2016'
p1468
asI367
(lp1469
S"It's like my brain was drunk. Drunk off my addiction, which is Diablo."
p1470
aS'Ricket'
p1471
aS'Aug 11, 2016'
p1472
asI368
(lp1473
S"Can't argue with that logic!"
p1474
aS'Ricket'
p1475
aS'Aug 11, 2016'
p1476
asI369
(lp1477
S'Not even smashing. Rip.'
p1478
aS'Ricket'
p1479
aS'Aug 11, 2016'
p1480
asI370
(lp1481
S"One woman's sky!"
p1482
aS'Ricket'
p1483
aS'Aug 11, 2016'
p1484
asI371
(lp1485
S"Dude, pimpin' AIN'T easy!"
p1486
aS'Ricket'
p1487
aS'Aug 11, 2016'
p1488
asI372
(lp1489
S'The thing people always made in Spore was just a penis monster, hurrrrr.'
p1490
aS'Ricket'
p1491
aS'Aug 12, 2016'
p1492
asI373
(lp1493
S'We had a Giga and a dream'
p1494
aS'Ricket'
p1495
aS'Aug 12, 2016'
p1496
asI374
(lp1497
S"Every planet ever is going to be named 'Dickbutt'"
p1498
aS'Ricket'
p1499
aS'Aug 12, 2016'
p1500
asI375
(lp1501
S'Why am I so lovely? Because my mummy made me that way.'
p1502
aS'Ricket'
p1503
aS'Aug 12, 2016'
p1504
asI376
(lp1505
S"Yeah that's a penis monste...wait where is its face???"
p1506
aS'Ricket'
p1507
aS'Aug 12, 2016'
p1508
asI377
(lp1509
S"*In reference to a Penis Monster* I'm jealous, I wish I found that!"
p1510
aS'Ricket'
p1511
aS'Aug 12, 2016'
p1512
asI378
(lp1513
S'This is so amazing its eyes on are...on its right balls? Or something?'
p1514
aS'Ricket'
p1515
aS'Aug 12, 2016'
p1516
asI379
(lp1517
S"I'm gonna find an alien that looks like a pair of boobs. Or an ass crack. I hope so!"
p1518
aS'Ricket'
p1519
aS'Aug 12, 2016'
p1520
asI380
(lp1521
S'*Take a Look at my Enormous Penis plays* ricketLaugh .'
p1522
aS'Ricket'
p1523
aS'Aug 13, 2016'
p1524
asI381
(lp1525
S"We minin' boys!"
p1526
aS'Ricket'
p1527
aS'Aug 13, 2016'
p1528
asI382
(lp1529
S'Can I flip the table? I think Mix would like that.'
p1530
aS'Ricket'
p1531
aS'Aug 13, 2016'
p1532
asI383
(lp1533
S'Journey milestone accomplished? Shawn, I did a thing!'
p1534
aS'Ricket'
p1535
aS'Aug 13, 2016'
p1536
asI384
(lp1537
S'Thanks for the titanium asshole!'
p1538
aS'Ricket'
p1539
aS'Aug 13, 2016'
p1540
asI385
(lp1541
S'Is this a fuckboy?'
p1542
aS'Ricket'
p1543
aS'Aug 13, 2016'
p1544
asI386
(lp1545
S"You're beautiful, enjoy that carbon."
p1546
aS'Ricket'
p1547
aS'Aug 13, 2016'
p1548
asI387
(lp1549
S'What a B-hole!'
p1550
aS'Ricket'
p1551
aS'Aug 15, 2016'
p1552
asI388
(lp1553
S"I'll bait him with my fucking body!"
p1554
aS'Ricket'
p1555
aS'Aug 15, 2016'
p1556
asI389
(lp1557
S"It's like Easter but I'm probably not going to get fat"
p1558
aS'Ricket'
p1559
aS'Aug 15, 2016'
p1560
asI390
(lp1561
S'Oh fuck these rexes are an accident.'
p1562
aS'Ricket'
p1563
aS'Aug 15, 2016'
p1564
asI391
(lp1565
S"Deemora you're fucking beautiful and I love you."
p1566
aS'Ricket'
p1567
aS'Aug 15, 2016'
p1568
asI392
(lp1569
S"Boo ba doo ba doo, we clappin' stream, boys!"
p1570
aS'Ricket'
p1571
aS'Aug 15, 2016'
p1572
asI393
(lp1573
S'OHMYGOD, hello molten.'
p1574
aS'Ricket'
p1575
aS'Aug 16, 2016'
p1576
asI394
(lp1577
S'Do the tomato potato, ba dum ba boom!'
p1578
aS'Ricket'
p1579
aS'Aug 16, 2016'
p1580
asI395
(lp1581
S'Much easier than walking! Fuck walking!'
p1582
aS'Ricket'
p1583
aS'Aug 16, 2016'
p1584
asI396
(lp1585
S"I'm probably gonna be behind you shortly."
p1586
aS'Ricket'
p1587
aS'Aug 17, 2016'
p1588
asI397
(lp1589
S"NCP stands for 'Northern Canadian Pleb'"
p1590
aS'Ricket'
p1591
aS'Aug 17, 2016'
p1592
asI398
(lp1593
S'Outlast I almost find funny, cause the guys who chase you are naked and you can see their...... their junk.'
p1594
aS'Ricket'
p1595
aS'Aug 18, 2016'
p1596
asI399
(lp1597
S'Dude, quotebot is SO beautiful.'
p1598
aS'Ricket'
p1599
aS'Aug 18, 2016'
p1600
asI400
(lp1601
S"Blasty-blast is like the best word ever. To use it in a sentence, 'I'm having a blasty-blast right now'"
p1602
aS'Ricket'
p1603
aS'Aug 18, 2016'
p1604
asI401
(lp1605
S"It's like Carl Poppa said - You just go with the flow. La jiggy jar jar doo. Dur dur dur dee dur."
p1606
aS'Ricket'
p1607
aS'Aug 18, 2016'
p1608
asI402
(lp1609
S"Such a beautiful word - 'subscribe' - Kappa ."
p1610
aS'Ricket'
p1611
aS'Aug 18, 2016'
p1612
asI403
(lp1613
S'My Giga needs to go out on a chompy-chomp fest.'
p1614
aS'Ricket'
p1615
aS'Aug 19, 2016'
p1616
asI404
(lp1617
S"Dat Pink Floyd tho. It's so juicy. Ohmahgod it's so juicy!"
p1618
aS'Ricket'
p1619
aS'Aug 19, 2016'
p1620
asI405
(lp1621
S"I'm bad lol ricketLaugh sorry"
p1622
aS'Ricket'
p1623
aS'Aug 19, 2016'
p1624
asI406
(lp1625
S'Oh fuck fuck fuck. I need a doctor. I need an adult.'
p1626
aS'Ricket'
p1627
aS'Aug 19, 2016'
p1628
asI407
(lp1629
S"I'm a fucking small person."
p1630
aS'Ricket'
p1631
aS'Aug 20, 2016'
p1632
asI408
(lp1633
S'The best thing about being small, I get lost in my ricketChair . My big, comfy ricketChair .'
p1634
aS'Ricket'
p1635
aS'Aug 20, 2016'
p1636
asI409
(lp1637
S'*Chip and Dales theme plays* ricketLaugh heh. Chippendales. Kappa .'
p1638
aS'Ricket'
p1639
aS'Aug 20, 2016'
p1640
asI410
(lp1641
S'Chair stream hype. Sorry, I just sat on the streamer.'
p1642
aS'Ricket'
p1643
aS'Aug 20, 2016'
p1644
asI411
(lp1645
S"I can't believe Flid is still asleep. What a loser-plebian... Don't tell him I said that!"
p1646
aS'Ricket'
p1647
aS'Aug 20, 2016'
p1648
asI412
(lp1649
S"It's like MyFreeCams but I don't get naked"
p1650
aS'Ricket'
p1651
aS'Aug 20, 2016'
p1652
asI413
(lp1653
S'Do I really need to explain bagged milk to you plebs?'
p1654
aS'Ricket'
p1655
aS'Aug 21, 2016'
p1656
asI414
(lp1657
S'The spec is gonna flow better. Like, Carl Poppa flow. Because I floooow'
p1658
aS'Ricket'
p1659
aS'Aug 25, 2016'
p1660
asI415
(lp1661
S"Troll feet ARE adorable. Especially when they're my troll's."
p1662
aS'Ricket'
p1663
aS'Aug 26, 2016'
p1664
asI416
(lp1665
S'I spy with my little eye.... something that is adorable and has 92 viewers Kappa .'
p1666
aS'Ricket'
p1667
aS'Aug 26, 2016'
p1668
asI417
(lp1669
S"It wasn't my poop, it was dog poop!"
p1670
aS'Ricket'
p1671
aS'Aug 26, 2016'
p1672
asI418
(lp1673
S'Fresh turd mashed on my heel'
p1674
aS'Ricket'
p1675
aS'Aug 26, 2016'
p1676
asI419
(lp1677
S"I'm like, some expert beards now."
p1678
aS'Ricket'
p1679
aS'Aug 27, 2016'
p1680
asI420
(lp1681
S'The sun sucks!'
p1682
aS'Ricket'
p1683
aS'Aug 27, 2016'
p1684
asI421
(lp1685
S'Metapod, harden, now!!!! ricketLaugh .'
p1686
aS'Ricket'
p1687
aS'Aug 27, 2016'
p1688
asI422
(lp1689
S'Girthy German veiner boys~.'
p1690
aS'Ricket'
p1691
aS'Aug 27, 2016'
p1692
asI423
(lp1693
S"It's an honor to die by my bow!"
p1694
aS'Ricket'
p1695
aS'Aug 28, 2016'
p1696
asI424
(lp1697
S'Trolls do not simply wear shoes.'
p1698
aS'Ricket'
p1699
aS'Aug 31, 2016'
p1700
asI425
(lp1701
S'You kinda ripped me into your ass'
p1702
aS'Ricket'
p1703
aS'Sep 01, 2016'
p1704
asI426
(lp1705
S'Puzzles are hard DansGame .'
p1706
aS'Ricket'
p1707
aS'Sep 01, 2016'
p1708
asI427
(lp1709
S'A cave is not just a cave.'
p1710
aS'Ricket'
p1711
aS'Sep 02, 2016'
p1712
asI428
(lp1713
S'I...try to teach things even really derpy things.'
p1714
aS'Ricket'
p1715
aS'Sep 02, 2016'
p1716
asI429
(lp1717
S'Am I small object? - "Yes" - You\'re right. Yep, I am.'
p1718
aS'Ricket'
p1719
aS'Sep 02, 2016'
p1720
asI430
(lp1721
S'I got the golden Kappa !'
p1722
aS'Ricket'
p1723
aS'Sep 02, 2016'
p1724
asI431
(lp1725
S'When I see that purple thing. It can only mean bling bling. Ever since I got this loot. You been on the bottom of Skada more.'
p1726
aS'Ricket'
p1727
aS'Sep 02, 2016'
p1728
asI432
(lp1729
S'Girls just wanna have fun. And interrupt heals.'
p1730
aS'Ricket'
p1731
aS'Sep 03, 2016'
p1732
asI433
(lp1733
S'You know what stream, I lied. I DO have a foot fetish. But, only trolls!'
p1734
aS'Ricket'
p1735
aS'Sep 03, 2016'
p1736
asI434
(lp1737
S'Fuck Azeroth this game is about math and programming!'
p1738
aS'Ricket'
p1739
aS'Sep 04, 2016'
p1740
asI435
(lp1741
S'Take my mana, you filthy teleporter!!'
p1742
aS'Ricket'
p1743
aS'Sep 04, 2016'
p1744
asI436
(lp1745
S"There's nothing sexier than a man with a C-4 detonator in his hand."
p1746
aS'Ricket'
p1747
aS'Sep 04, 2016'
p1748
asI437
(lp1749
S'Pillage! Plunder! AoE everything with sidewinders and marking targets!'
p1750
aS'Ricket'
p1751
aS'Sep 05, 2016'
p1752
asI438
(lp1753
S'Flid is dating Gala...yeah they getting married in the spring.'
p1754
aS'Ricket'
p1755
aS'Sep 06, 2016'
p1756
asI439
(lp1757
S"I need a new coffee. I'm turning into Flid!"
p1758
aS'Ricket'
p1759
aS'Sep 06, 2016'
p1760
asI440
(lp1761
S"I'm gonna tame Flid."
p1762
aS'Ricket'
p1763
aS'Sep 06, 2016'
p1764
asI441
(lp1765
S'First comes trinkets, then comes weapons..... Then comes Gala with the baby carriage!'
p1766
aS'Ricket'
p1767
aS'Sep 08, 2016'
p1768
asI442
(lp1769
S'We need our lord and savior Flid to carry us.'
p1770
aS'Ricket'
p1771
aS'Sep 08, 2016'
p1772
asI443
(lp1773
S"Because this should have been done before it wasn't done"
p1774
aS'Ricket'
p1775
aS'Sep 08, 2016'
p1776
asI444
(lp1777
S'*reciting Green Eggs and Ham*'
p1778
aS'Ricket'
p1779
aS'Sep 09, 2016'
p1780
asI445
(lp1781
S'Green Eggs and Ham has a plot to it, whereas Green Fish Red Fish Blue Fish does not, OKAY?!'
p1782
aS'Ricket'
p1783
aS'Sep 09, 2016'
p1784
asI446
(lp1785
S"Why can't I mine this bear?"
p1786
aS'Ricket'
p1787
aS'Sep 09, 2016'
p1788
asI447
(lp1789
S"I'm here to kick ass and chew bubblegum, and I'm all out of names."
p1790
aS'Ricket'
p1791
aS'Sep 09, 2016'
p1792
asI448
(lp1793
S'This stream is now PG.... err, 18+'
p1794
aS'Ricket'
p1795
aS'Sep 09, 2016'
p1796
asI449
(lp1797
S"We're doing Bob"
p1798
aS'Ricket'
p1799
aS'Sep 09, 2016'
p1800
asI450
(lp1801
S"When I think of the left, I think of the hand I write with, and it's the opposite hand of that."
p1802
aS'Ricket'
p1803
aS'Sep 09, 2016'
p1804
asI451
(lp1805
S"I Googled pizza. I wish I didn't do that now."
p1806
aS'Ricket'
p1807
aS'Sep 10, 2016'
p1808
asI452
(lp1809
S"Flid likes roleplay. And he's single..... Ladies."
p1810
aS'Ricket'
p1811
aS'Sep 10, 2016'
p1812
asI453
(lp1813
S"I don't really care what Shawn says, fork that guy."
p1814
aS'Ricket'
p1815
aS'Sep 10, 2016'
p1816
asI454
(lp1817
S"I get it I'm a chick I hatch from an egg and this is a pun about eggs."
p1818
aS'Ricket'
p1819
aS'Sep 10, 2016'
p1820
asI455
(lp1821
S"Nice damage Flid, oh wait, that's me."
p1822
aS'Ricket'
p1823
aS'Sep 10, 2016'
p1824
asI456
(lp1825
S'Aw, cheesus, Ricket!'
p1826
aS'Ricket'
p1827
aS'Sep 13, 2016'
p1828
asI457
(lp1829
S'I really hate Elves. Of all kinds.'
p1830
aS'Ricket'
p1831
aS'Sep 13, 2016'
p1832
asI458
(lp1833
S"There's bacon on that potato, I don't want it!"
p1834
aS'Ricket'
p1835
aS'Sep 13, 2016'
p1836
asI459
(lp1837
S'Gank my alt? Meet my main!'
p1838
aS'Ricket'
p1839
aS'Sep 13, 2016'
p1840
asI460
(lp1841
S"That naughty little onion ring. It needs to be punished. Punish it with my mouthhole. You've been a bad little onion ring."
p1842
aS'Ricket'
p1843
aS'Sep 14, 2016'
p1844
asI461
(lp1845
S'Stop, and wiggle with the ass.'
p1846
aS'Ricket'
p1847
aS'Sep 14, 2016'
p1848
asI462
(lp1849
S'I lied so hard I told the truth!'
p1850
aS'Ricket'
p1851
aS'Sep 14, 2016'
p1852
asI463
(lp1853
S"I'm sorry, I just had technical difficulties with my mouth."
p1854
aS'Ricket'
p1855
aS'Sep 14, 2016'
p1856
asI464
(lp1857
S'That word makes everyone smile..... Panties. Tehehehe'
p1858
aS'Ricket'
p1859
aS'Sep 14, 2016'
p1860
asI465
(lp1861
S"I love being a fuckin' egg."
p1862
aS'Ricket'
p1863
aS'Sep 14, 2016'
p1864
asI466
(lp1865
S'Yeah I would smang that with my mouth hole.'
p1866
aS'Ricket'
p1867
aS'Sep 15, 2016'
p1868
asI467
(lp1869
S"Let's give it up for red balls, woohoo!"
p1870
aS'Ricket'
p1871
aS'Sep 17, 2016'
p1872
asI468
(lp1873
S"It's my stream, you can't use it against me!"
p1874
aS'Ricket'
p1875
aS'Sep 18, 2016'
p1876
asI469
(lp1877
S"You're a delicious grilled cheese sandwich. With garlic butter."
p1878
aS'Ricket'
p1879
aS'Sep 18, 2016'
p1880
asI470
(lp1881
S"If someone were to touch a shrimp and poke me in the eye, I wouldn't be able to see for three days."
p1882
aS'Ricket'
p1883
aS'Sep 22, 2016'
p1884
asI471
(lp1885
S"Try to be better...I'm not going to try and do worse!!!"
p1886
aS'Ricket'
p1887
aS'Sep 24, 2016'
p1888
asI472
(lp1889
S"I'm almost at 1000 Twitter followers.... wink wink, nudge nudge. wink wink nudge nudge."
p1890
aS'Ricket'
p1891
aS'Sep 24, 2016'
p1892
asI473
(lp1893
S'I like when he asks for the booty.'
p1894
aS'Ricket'
p1895
aS'Sep 25, 2016'
p1896
asI474
(lp1897
S"Rip the shit out of that boss. Did I just say rip the shit? That's gross."
p1898
aS'Ricket'
p1899
aS'Sep 26, 2016'
p1900
asI475
(lp1901
S"Sorry, I'm an F- reader"
p1902
aS'Ricket'
p1903
aS'Sep 28, 2016'
p1904
asI476
(lp1905
S'Mwahahaha! Evil laugh, sorry.'
p1906
aS'Ricket'
p1907
aS'Sep 29, 2016'
p1908
asI477
(lp1909
S'\xe2\x99\xab Perfect Limit Breaks all day! \xe2\x99\xab'
p1910
aS'Ricket'
p1911
aS'Sep 29, 2016'
p1912
asI478
(lp1913
S'That is one freaky looking Bizatch'
p1914
aS'Ricket'
p1915
aS'Sep 29, 2016'
p1916
asI479
(lp1917
S'So...Irvine and Quistis are kind of a thing and Zell and...hot dogs are kind of a thing?'
p1918
aS'Ricket'
p1919
aS'Sep 29, 2016'
p1920
asI480
(lp1921
S'Charlie and the Charlie Factory'
p1922
aS'Ricket'
p1923
aS'Sep 29, 2016'
p1924
asI481
(lp1925
S"It's hard and sometimes you just gotta get fucked."
p1926
aS'Ricket'
p1927
aS'Sep 30, 2016'
p1928
asI482
(lp1929
S'I need four more dudes.'
p1930
aS'Ricket'
p1931
aS'Oct 01, 2016'
p1932
asI483
(lp1933
S'Smells like the most delicious burger, kinda wanted one too...'
p1934
aS'Ricket'
p1935
aS'Oct 01, 2016'
p1936
asI484
(lp1937
S'Goddamn this fucking game I want my legendary what the fuck?!'
p1938
aS'Ricket'
p1939
aS'Oct 01, 2016'
p1940
asI485
(lp1941
S"I'm just gonna keep drinking and stream til I get a legendary and if I'm dead in two days...it's been a pleasure."
p1942
aS'Ricket'
p1943
aS'Oct 01, 2016'
p1944
asI486
(lp1945
S'Many sonar noises, boo boo boo boo boo boo boo!'
p1946
aS'Ricket'
p1947
aS'Oct 01, 2016'
p1948
asI487
(lp1949
S'OH MY GOD my butt hole...'
p1950
aS'Ricket'
p1951
aS'Oct 02, 2016'
p1952
asI488
(lp1953
S"Heh, it's like I'm pooping out meat chunks."
p1954
aS'Ricket'
p1955
aS'Oct 02, 2016'
p1956
asI489
(lp1957
S'Flid like...shit on me.'
p1958
aS'Ricket'
p1959
aS'Oct 04, 2016'
p1960
asI490
(lp1961
S"I picked up some foul-smelling meat, then I'll use them to feed the doges."
p1962
aS'Ricket'
p1963
aS'Oct 05, 2016'
p1964
asI491
(lp1965
S'Stre~chy! *grunt noise*'
p1966
aS'Ricket'
p1967
aS'Oct 05, 2016'
p1968
asI492
(lp1969
S"The cheer icon does look cooler, I'm not saying that cause I want all your money...I mean, I do want all your money."
p1970
aS'Ricket'
p1971
aS'Oct 06, 2016'
p1972
asI493
(lp1973
S"You apologize too much you're turning into...a Canadian."
p1974
aS'Ricket'
p1975
aS'Oct 06, 2016'
p1976
asI494
(lp1977
S'First pull my RNG was like pew, pew pew pew.'
p1978
aS'Ricket'
p1979
aS'Oct 06, 2016'
p1980
as.